target datalayout = "e-m:e-p270:32:32-p271:32:32-p272:64:64-i64:64-i128:128-f80:128-n8:16:32:64-S128"
target triple = "x86_64-pc-linux-gnu"

%struct.SDL_AtomicInt = type { i32 }
%struct.SDL_SensorDriver = type { ptr, ptr, ptr, ptr, ptr, ptr, ptr, ptr, ptr, ptr, ptr }
%struct.SDL_Sensor = type { i32, ptr, i32, i32, [16 x float], ptr, ptr, i32, i32, ptr }

@SDL_sensors_initialized = internal global i8 0, align 1
@SDL_sensor_lock_pending = internal global %struct.SDL_AtomicInt zeroinitializer, align 4
@SDL_sensor_lock = internal global ptr null, align 8
@SDL_sensors_locked = internal global i32 0, align 4
@SDL_sensor_drivers = internal global [1 x ptr] [ptr @SDL_DUMMY_SensorDriver], align 8
@SDL_sensors = internal global ptr null, align 8

; Function Attrs: nounwind uwtable
define hidden void @SDL_UnlockSensors() #0 {
  %1 = alloca i8, align 1
  %2 = alloca ptr, align 8
  call void @llvm.lifetime.start.p0(i64 1, ptr %1) #6
  store i8 0, ptr %1, align 1
  %3 = load i32, ptr @SDL_sensors_locked, align 4
  %4 = add nsw i32 %3, -1
  store i32 %4, ptr @SDL_sensors_locked, align 4
  %5 = load i8, ptr @SDL_sensors_initialized, align 1, !range !3, !noundef !4
  %6 = trunc i8 %5 to i1
  br i1 %6, label %15, label %7

7:                                                ; preds = %0
  %8 = load i32, ptr @SDL_sensors_locked, align 4
  %9 = icmp ne i32 %8, 0
  br i1 %9, label %14, label %10

10:                                               ; preds = %7
  %11 = call i32 @SDL_GetAtomicInt_REAL(ptr noundef @SDL_sensor_lock_pending)
  %12 = icmp eq i32 %11, 0
  br i1 %12, label %13, label %14

13:                                               ; preds = %10
  store i8 1, ptr %1, align 1
  br label %14

14:                                               ; preds = %13, %10, %7
  br label %15

15:                                               ; preds = %14, %0
  %16 = load i8, ptr %1, align 1, !range !3, !noundef !4
  %17 = trunc i8 %16 to i1
  br i1 %17, label %18, label %24

18:                                               ; preds = %15
  call void @llvm.lifetime.start.p0(i64 8, ptr %2) #6
  %19 = load ptr, ptr @SDL_sensor_lock, align 8
  store ptr %19, ptr %2, align 8
  %20 = load ptr, ptr %2, align 8
  call void @SDL_LockMutex_REAL(ptr noundef %20)
  %21 = load ptr, ptr @SDL_sensor_lock, align 8
  call void @SDL_UnlockMutex_REAL(ptr noundef %21)
  store ptr null, ptr @SDL_sensor_lock, align 8
  %22 = load ptr, ptr %2, align 8
  call void @SDL_UnlockMutex_REAL(ptr noundef %22)
  %23 = load ptr, ptr %2, align 8
  call void @SDL_DestroyMutex_REAL(ptr noundef %23)
  call void @llvm.lifetime.end.p0(i64 8, ptr %2) #6
  br label %26

24:                                               ; preds = %15
  %25 = load ptr, ptr @SDL_sensor_lock, align 8
  call void @SDL_UnlockMutex_REAL(ptr noundef %25)
  br label %26

26:                                               ; preds = %24, %18
  call void @llvm.lifetime.end.p0(i64 1, ptr %1) #6
  ret void
}

; Function Attrs: nounwind uwtable
define hidden void @SDL_LockSensors() #0 {
  %1 = call i32 @SDL_AddAtomicInt_REAL(ptr noundef @SDL_sensor_lock_pending, i32 noundef 1)
  %2 = load ptr, ptr @SDL_sensor_lock, align 8
  call void @SDL_LockMutex_REAL(ptr noundef %2)
  %3 = call i32 @SDL_AddAtomicInt_REAL(ptr noundef @SDL_sensor_lock_pending, i32 noundef -1)
  %4 = load i32, ptr @SDL_sensors_locked, align 4
  %5 = add nsw i32 %4, 1
  store i32 %5, ptr @SDL_sensors_locked, align 4
  ret void
}

; Function Attrs: nounwind uwtable
define hidden void @SDL_QuitSensors() #0 {
  %1 = alloca i32, align 4
  call void @llvm.lifetime.start.p0(i64 4, ptr %1) #6
  call void @SDL_LockSensors()
  br label %2

2:                                                ; preds = %5, %0
  %3 = load ptr, ptr @SDL_sensors, align 8
  %4 = icmp ne ptr %3, null
  br i1 %4, label %5, label %9

5:                                                ; preds = %2
  %6 = load ptr, ptr @SDL_sensors, align 8
  %7 = getelementptr inbounds nuw %struct.SDL_Sensor, ptr %6, i32 0, i32 8
  store i32 1, ptr %7, align 4
  %8 = load ptr, ptr @SDL_sensors, align 8
  call void @SDL_CloseSensor_REAL(ptr noundef %8)
  br label %2, !llvm.loop !7

9:                                                ; preds = %2
  store i32 0, ptr %1, align 4
  br label %10

10:                                               ; preds = %21, %9
  %11 = load i32, ptr %1, align 4
  %12 = sext i32 %11 to i64
  %13 = icmp ult i64 %12, 1
  br i1 %13, label %14, label %24

14:                                               ; preds = %10
  %15 = load i32, ptr %1, align 4
  %16 = sext i32 %15 to i64
  %17 = getelementptr inbounds [1 x ptr], ptr @SDL_sensor_drivers, i64 0, i64 %16
  %18 = load ptr, ptr %17, align 8
  %19 = getelementptr inbounds nuw %struct.SDL_SensorDriver, ptr %18, i32 0, i32 10
  %20 = load ptr, ptr %19, align 8
  call void %20()
  br label %21

21:                                               ; preds = %14
  %22 = load i32, ptr %1, align 4
  %23 = add nsw i32 %22, 1
  store i32 %23, ptr %1, align 4
  br label %10, !llvm.loop !8

24:                                               ; preds = %10
  call void @SDL_QuitSubSystem_REAL(i32 noundef 16384)
  store i8 0, ptr @SDL_sensors_initialized, align 1
  call void @SDL_UnlockSensors()
  call void @llvm.lifetime.end.p0(i64 4, ptr %1) #6
  ret void
}