; Function Attrs: nounwind uwtable
define hidden void @SDL_QuitSensors() local_unnamed_addr #1 {
  %1 = tail call i32 @SDL_AddAtomicInt_REAL(ptr noundef nonnull @SDL_sensor_lock_pending, i32 noundef 1) #9
  %2 = load ptr, ptr @SDL_sensor_lock, align 8
  tail call void @SDL_LockMutex_REAL(ptr noundef %2) #9
  %3 = tail call i32 @SDL_AddAtomicInt_REAL(ptr noundef nonnull @SDL_sensor_lock_pending, i32 noundef -1) #9
  %4 = load i32, ptr @SDL_sensors_locked, align 4
  %5 = add nsw i32 %4, 1
  store i32 %5, ptr @SDL_sensors_locked, align 4
  %6 = load ptr, ptr @SDL_sensors, align 8
  %.not6 = icmp eq ptr %6, null
  br i1 %.not6, label %.critedge, label %.lr.ph

.lr.ph:                                           ; preds = %0, %.lr.ph
  %7 = phi ptr [ %9, %.lr.ph ], [ %6, %0 ]
  %8 = getelementptr inbounds nuw i8, ptr %7, i64 108
  store i32 1, ptr %8, align 4
  tail call void @SDL_CloseSensor_REAL(ptr noundef nonnull %7)
  %9 = load ptr, ptr @SDL_sensors, align 8
  %.not = icmp eq ptr %9, null
  br i1 %.not, label %.critedge, label %.lr.ph, !llvm.loop !3

.critedge:                                        ; preds = %.lr.ph, %0
  %10 = load ptr, ptr getelementptr inbounds nuw (i8, ptr @SDL_DUMMY_SensorDriver, i64 80), align 8
  tail call void %10() #9
  tail call void @SDL_QuitSubSystem_REAL(i32 noundef 16384) #9
  store i1 false, ptr @SDL_sensors_initialized, align 1
  %11 = load i32, ptr @SDL_sensors_locked, align 4
  %12 = add nsw i32 %11, -1
  store i32 %12, ptr @SDL_sensors_locked, align 4
  %.not5 = icmp eq i32 %12, 0
  br i1 %.not5, label %13, label %.critedge.i

13:                                               ; preds = %.critedge
  %14 = tail call i32 @SDL_GetAtomicInt_REAL(ptr noundef nonnull @SDL_sensor_lock_pending) #9
  %15 = icmp eq i32 %14, 0
  br i1 %15, label %16, label %.critedge.i

16:                                               ; preds = %13
  %17 = load ptr, ptr @SDL_sensor_lock, align 8
  tail call void @SDL_LockMutex_REAL(ptr noundef %17) #9
  %18 = load ptr, ptr @SDL_sensor_lock, align 8
  tail call void @SDL_UnlockMutex_REAL(ptr noundef %18) #9
  store ptr null, ptr @SDL_sensor_lock, align 8
  tail call void @SDL_UnlockMutex_REAL(ptr noundef %17) #9
  tail call void @SDL_DestroyMutex_REAL(ptr noundef %17) #9
  br label %SDL_UnlockSensors.exit

.critedge.i:                                      ; preds = %13, %.critedge
  %19 = load ptr, ptr @SDL_sensor_lock, align 8
  tail call void @SDL_UnlockMutex_REAL(ptr noundef %19) #9
  br label %SDL_UnlockSensors.exit

SDL_UnlockSensors.exit:                           ; preds = %16, %.critedge.i
  ret void
}